target datalayout = "e-m:e-p270:32:32-p271:32:32-p272:64:64-i64:64-i128:128-f80:128-n8:16:32:64-S128"
target triple = "x86_64-unknown-linux-gnu"

%"class.icu_75::UnicodeString" = type { %"class.icu_75::Replaceable", %"union.icu_75::UnicodeString::StackBufferOrFields" }
%"class.icu_75::Replaceable" = type { %"class.icu_75::UObject" }
%"class.icu_75::UObject" = type { ptr }
%"union.icu_75::UnicodeString::StackBufferOrFields" = type { %struct.anon.0, [32 x i8] }
%struct.anon.0 = type { i16, i32, i32, ptr }
%"class.icu_75::NumberingSystem" = type <{ %"class.icu_75::UObject", %"class.icu_75::UnicodeString", i32, i8, [9 x i8], [2 x i8] }>

; Function Attrs: mustprogress nounwind uwtable
define void @_ZN6icu_7515NumberingSystem7setNameEPKc(ptr noundef nonnull align 8 dereferenceable(86) %this, ptr noundef %n) #0 align 2 {
entry:
  %this.addr = alloca ptr, align 8
  %n.addr = alloca ptr, align 8
  store ptr %this, ptr %this.addr, align 8
  store ptr %n, ptr %n.addr, align 8
  %this1 = load ptr, ptr %this.addr, align 8
  %0 = load ptr, ptr %n.addr, align 8
  %cmp = icmp eq ptr %0, null
  br i1 %cmp, label %if.then, label %if.else

if.then:                                          ; preds = %entry
  %name = getelementptr inbounds %"class.icu_75::NumberingSystem", ptr %this1, i32 0, i32 4
  %arrayidx = getelementptr inbounds [9 x i8], ptr %name, i64 0, i64 0
  store i8 0, ptr %arrayidx, align 1
  br label %if.end

if.else:                                          ; preds = %entry
  %name2 = getelementptr inbounds %"class.icu_75::NumberingSystem", ptr %this1, i32 0, i32 4
  %arraydecay = getelementptr inbounds [9 x i8], ptr %name2, i64 0, i64 0
  %1 = load ptr, ptr %n.addr, align 8
  %call = call ptr @strncpy(ptr noundef %arraydecay, ptr noundef %1, i64 noundef 8) #8
  %name3 = getelementptr inbounds %"class.icu_75::NumberingSystem", ptr %this1, i32 0, i32 4
  %arrayidx4 = getelementptr inbounds [9 x i8], ptr %name3, i64 0, i64 8
  store i8 0, ptr %arrayidx4, align 1
  br label %if.end

if.end:                                           ; preds = %if.else, %if.then
  ret void
}