; Function Attrs: mustprogress nofree nounwind willreturn memory(write, argmem: readwrite, inaccessiblemem: none) uwtable
define void @_ZN6icu_7515NumberingSystem7setNameEPKc(ptr noundef nonnull align 8 dereferenceable(86) %this, ptr noundef readonly %n) local_unnamed_addr #5 align 2 {
entry:
  %cmp = icmp eq ptr %n, null
  %name = getelementptr inbounds i8, ptr %this, i64 77
  br i1 %cmp, label %if.end, label %if.else

if.else:                                          ; preds = %entry
  %call = tail call ptr @strncpy(ptr noundef nonnull dereferenceable(1) %name, ptr noundef nonnull dereferenceable(1) %n, i64 noundef 8) #16
  %arrayidx4 = getelementptr inbounds i8, ptr %this, i64 85
  br label %if.end

if.end:                                           ; preds = %entry, %if.else
  %arrayidx4.sink = phi ptr [ %arrayidx4, %if.else ], [ %name, %entry ]
  store i8 0, ptr %arrayidx4.sink, align 1
  ret void
}